target datalayout = "e-m:e-p270:32:32-p271:32:32-p272:64:64-i64:64-i128:128-f80:128-n8:16:32:64-S128"
target triple = "x86_64-pc-linux-gnu"

%struct.UtvideoContext = type { ptr, %struct.UTVideoDSPContext, %struct.BswapDSPContext, %struct.LLVidDSPContext, i32, i32, i32, i32, i32, i32, i32, i32, i32, i32, i32, ptr, i32, ptr, [4 x [256 x ptr]], [4 x [256 x i64]], [4 x [256 x ptr]], [4 x [256 x i64]] }
%struct.UTVideoDSPContext = type { ptr, ptr }
%struct.BswapDSPContext = type { ptr, ptr }
%struct.LLVidDSPContext = type { ptr, ptr, ptr, ptr, ptr }

; Function Attrs: inlinehint nounwind willreturn memory(none) uwtable
define internal i32 @mid_pred(i32 noundef %0, i32 noundef %1, i32 noundef %2) #10 {
  %4 = alloca i32, align 4
  %5 = alloca i32, align 4
  %6 = alloca i32, align 4
  store i32 %0, ptr %4, align 4, !tbaa !44
  store i32 %1, ptr %5, align 4, !tbaa !44
  store i32 %2, ptr %6, align 4, !tbaa !44
  %7 = load i32, ptr %4, align 4, !tbaa !44
  %8 = load i32, ptr %5, align 4, !tbaa !44
  %9 = icmp sgt i32 %7, %8
  br i1 %9, label %10, label %24

10:                                               ; preds = %3
  %11 = load i32, ptr %6, align 4, !tbaa !44
  %12 = load i32, ptr %5, align 4, !tbaa !44
  %13 = icmp sgt i32 %11, %12
  br i1 %13, label %14, label %23

14:                                               ; preds = %10
  %15 = load i32, ptr %6, align 4, !tbaa !44
  %16 = load i32, ptr %4, align 4, !tbaa !44
  %17 = icmp sgt i32 %15, %16
  br i1 %17, label %18, label %20

18:                                               ; preds = %14
  %19 = load i32, ptr %4, align 4, !tbaa !44
  store i32 %19, ptr %5, align 4, !tbaa !44
  br label %22

20:                                               ; preds = %14
  %21 = load i32, ptr %6, align 4, !tbaa !44
  store i32 %21, ptr %5, align 4, !tbaa !44
  br label %22

22:                                               ; preds = %20, %18
  br label %23

23:                                               ; preds = %22, %10
  br label %38

24:                                               ; preds = %3
  %25 = load i32, ptr %5, align 4, !tbaa !44
  %26 = load i32, ptr %6, align 4, !tbaa !44
  %27 = icmp sgt i32 %25, %26
  br i1 %27, label %28, label %37

28:                                               ; preds = %24
  %29 = load i32, ptr %6, align 4, !tbaa !44
  %30 = load i32, ptr %4, align 4, !tbaa !44
  %31 = icmp sgt i32 %29, %30
  br i1 %31, label %32, label %34

32:                                               ; preds = %28
  %33 = load i32, ptr %6, align 4, !tbaa !44
  store i32 %33, ptr %5, align 4, !tbaa !44
  br label %36

34:                                               ; preds = %28
  %35 = load i32, ptr %4, align 4, !tbaa !44
  store i32 %35, ptr %5, align 4, !tbaa !44
  br label %36

36:                                               ; preds = %34, %32
  br label %37

37:                                               ; preds = %36, %24
  br label %38

38:                                               ; preds = %37, %23
  %39 = load i32, ptr %5, align 4, !tbaa !44
  ret i32 %39
}

; Function Attrs: nounwind uwtable
define internal void @restore_median_planar_il(ptr noundef %0, ptr noundef %1, i64 noundef %2, i32 noundef %3, i32 noundef %4, i32 noundef %5, i32 noundef %6) #1 {
  %8 = alloca ptr, align 8
  %9 = alloca ptr, align 8
  %10 = alloca i64, align 8
  %11 = alloca i32, align 4
  %12 = alloca i32, align 4
  %13 = alloca i32, align 4
  %14 = alloca i32, align 4
  %15 = alloca i32, align 4
  %16 = alloca i32, align 4
  %17 = alloca i32, align 4
  %18 = alloca i32, align 4
  %19 = alloca i32, align 4
  %20 = alloca i32, align 4
  %21 = alloca ptr, align 8
  %22 = alloca i32, align 4
  %23 = alloca i32, align 4
  %24 = alloca i32, align 4
  %25 = alloca i64, align 8
  store ptr %0, ptr %8, align 8, !tbaa !29
  store ptr %1, ptr %9, align 8, !tbaa !62
  store i64 %2, ptr %10, align 8, !tbaa !66
  store i32 %3, ptr %11, align 4, !tbaa !44
  store i32 %4, ptr %12, align 4, !tbaa !44
  store i32 %5, ptr %13, align 4, !tbaa !44
  store i32 %6, ptr %14, align 4, !tbaa !44
  call void @llvm.lifetime.start.p0(i64 4, ptr %15) #11
  call void @llvm.lifetime.start.p0(i64 4, ptr %16) #11
  call void @llvm.lifetime.start.p0(i64 4, ptr %17) #11
  call void @llvm.lifetime.start.p0(i64 4, ptr %18) #11
  call void @llvm.lifetime.start.p0(i64 4, ptr %19) #11
  call void @llvm.lifetime.start.p0(i64 4, ptr %20) #11
  call void @llvm.lifetime.start.p0(i64 8, ptr %21) #11
  call void @llvm.lifetime.start.p0(i64 4, ptr %22) #11
  call void @llvm.lifetime.start.p0(i64 4, ptr %23) #11
  call void @llvm.lifetime.start.p0(i64 4, ptr %24) #11
  %26 = load i32, ptr %14, align 4, !tbaa !44
  %27 = icmp ne i32 %26, 0
  %28 = select i1 %27, i32 3, i32 1
  %29 = xor i32 %28, -1
  store i32 %29, ptr %24, align 4, !tbaa !44
  call void @llvm.lifetime.start.p0(i64 8, ptr %25) #11
  %30 = load i64, ptr %10, align 8, !tbaa !66
  %31 = shl i64 %30, 1
  store i64 %31, ptr %25, align 8, !tbaa !66
  store i32 0, ptr %17, align 4, !tbaa !44
  br label %32

32:                                               ; preds = %246, %7
  %33 = load i32, ptr %17, align 4, !tbaa !44
  %34 = load i32, ptr %13, align 4, !tbaa !44
  %35 = icmp slt i32 %33, %34
  br i1 %35, label %36, label %249

36:                                               ; preds = %32
  %37 = load i32, ptr %17, align 4, !tbaa !44
  %38 = load i32, ptr %12, align 4, !tbaa !44
  %39 = mul nsw i32 %37, %38
  %40 = load i32, ptr %13, align 4, !tbaa !44
  %41 = sdiv i32 %39, %40
  %42 = load i32, ptr %24, align 4, !tbaa !44
  %43 = and i32 %41, %42
  store i32 %43, ptr %22, align 4, !tbaa !44
  %44 = load i32, ptr %17, align 4, !tbaa !44
  %45 = add nsw i32 %44, 1
  %46 = load i32, ptr %12, align 4, !tbaa !44
  %47 = mul nsw i32 %45, %46
  %48 = load i32, ptr %13, align 4, !tbaa !44
  %49 = sdiv i32 %47, %48
  %50 = load i32, ptr %24, align 4, !tbaa !44
  %51 = and i32 %49, %50
  %52 = load i32, ptr %22, align 4, !tbaa !44
  %53 = sub nsw i32 %51, %52
  store i32 %53, ptr %23, align 4, !tbaa !44
  %54 = load i32, ptr %23, align 4, !tbaa !44
  %55 = ashr i32 %54, 1
  store i32 %55, ptr %23, align 4, !tbaa !44
  %56 = load i32, ptr %23, align 4, !tbaa !44
  %57 = icmp ne i32 %56, 0
  br i1 %57, label %59, label %58

58:                                               ; preds = %36
  br label %246

59:                                               ; preds = %36
  %60 = load ptr, ptr %9, align 8, !tbaa !62
  %61 = load i32, ptr %22, align 4, !tbaa !44
  %62 = sext i32 %61 to i64
  %63 = load i64, ptr %10, align 8, !tbaa !66
  %64 = mul nsw i64 %62, %63
  %65 = getelementptr inbounds i8, ptr %60, i64 %64
  store ptr %65, ptr %21, align 8, !tbaa !62
  %66 = load ptr, ptr %21, align 8, !tbaa !62
  %67 = getelementptr inbounds i8, ptr %66, i64 0
  %68 = load i8, ptr %67, align 1, !tbaa !48
  %69 = zext i8 %68 to i32
  %70 = add nsw i32 %69, 128
  %71 = trunc i32 %70 to i8
  store i8 %71, ptr %67, align 1, !tbaa !48
  %72 = load ptr, ptr %8, align 8, !tbaa !29
  %73 = getelementptr inbounds nuw %struct.UtvideoContext, ptr %72, i32 0, i32 3
  %74 = getelementptr inbounds nuw %struct.LLVidDSPContext, ptr %73, i32 0, i32 2
  %75 = load ptr, ptr %74, align 8, !tbaa !113
  %76 = load ptr, ptr %21, align 8, !tbaa !62
  %77 = load ptr, ptr %21, align 8, !tbaa !62
  %78 = load i32, ptr %11, align 4, !tbaa !44
  %79 = sext i32 %78 to i64
  %80 = call i32 %75(ptr noundef %76, ptr noundef %77, i64 noundef %79, i32 noundef 0)
  store i32 %80, ptr %18, align 4, !tbaa !44
  %81 = load ptr, ptr %8, align 8, !tbaa !29
  %82 = getelementptr inbounds nuw %struct.UtvideoContext, ptr %81, i32 0, i32 3
  %83 = getelementptr inbounds nuw %struct.LLVidDSPContext, ptr %82, i32 0, i32 2
  %84 = load ptr, ptr %83, align 8, !tbaa !113
  %85 = load ptr, ptr %21, align 8, !tbaa !62
  %86 = load i64, ptr %10, align 8, !tbaa !66
  %87 = getelementptr inbounds i8, ptr %85, i64 %86
  %88 = load ptr, ptr %21, align 8, !tbaa !62
  %89 = load i64, ptr %10, align 8, !tbaa !66
  %90 = getelementptr inbounds i8, ptr %88, i64 %89
  %91 = load i32, ptr %11, align 4, !tbaa !44
  %92 = sext i32 %91 to i64
  %93 = load i32, ptr %18, align 4, !tbaa !44
  %94 = call i32 %84(ptr noundef %87, ptr noundef %90, i64 noundef %92, i32 noundef %93)
  %95 = load i64, ptr %25, align 8, !tbaa !66
  %96 = load ptr, ptr %21, align 8, !tbaa !62
  %97 = getelementptr inbounds i8, ptr %96, i64 %95
  store ptr %97, ptr %21, align 8, !tbaa !62
  %98 = load i32, ptr %23, align 4, !tbaa !44
  %99 = icmp sle i32 %98, 1
  br i1 %99, label %100, label %101

100:                                              ; preds = %59
  br label %246

101:                                              ; preds = %59
  %102 = load ptr, ptr %21, align 8, !tbaa !62
  %103 = load i64, ptr %25, align 8, !tbaa !66
  %104 = sub nsw i64 0, %103
  %105 = getelementptr inbounds i8, ptr %102, i64 %104
  %106 = load i8, ptr %105, align 1, !tbaa !48
  %107 = zext i8 %106 to i32
  store i32 %107, ptr %20, align 4, !tbaa !44
  %108 = load i32, ptr %20, align 4, !tbaa !44
  %109 = load ptr, ptr %21, align 8, !tbaa !62
  %110 = getelementptr inbounds i8, ptr %109, i64 0
  %111 = load i8, ptr %110, align 1, !tbaa !48
  %112 = zext i8 %111 to i32
  %113 = add nsw i32 %112, %108
  %114 = trunc i32 %113 to i8
  store i8 %114, ptr %110, align 1, !tbaa !48
  %115 = load ptr, ptr %21, align 8, !tbaa !62
  %116 = getelementptr inbounds i8, ptr %115, i64 0
  %117 = load i8, ptr %116, align 1, !tbaa !48
  %118 = zext i8 %117 to i32
  store i32 %118, ptr %18, align 4, !tbaa !44
  store i32 1, ptr %15, align 4, !tbaa !44
  br label %119

119:                                              ; preds = %163, %101
  %120 = load i32, ptr %15, align 4, !tbaa !44
  %121 = load i32, ptr %11, align 4, !tbaa !44
  %122 = icmp sgt i32 %121, 16
  br i1 %122, label %123, label %124

123:                                              ; preds = %119
  br label %126

124:                                              ; preds = %119
  %125 = load i32, ptr %11, align 4, !tbaa !44
  br label %126

126:                                              ; preds = %124, %123
  %127 = phi i32 [ 16, %123 ], [ %125, %124 ]
  %128 = icmp slt i32 %120, %127
  br i1 %128, label %129, label %166

129:                                              ; preds = %126
  %130 = load ptr, ptr %21, align 8, !tbaa !62
  %131 = load i32, ptr %15, align 4, !tbaa !44
  %132 = sext i32 %131 to i64
  %133 = load i64, ptr %25, align 8, !tbaa !66
  %134 = sub nsw i64 %132, %133
  %135 = getelementptr inbounds i8, ptr %130, i64 %134
  %136 = load i8, ptr %135, align 1, !tbaa !48
  %137 = zext i8 %136 to i32
  store i32 %137, ptr %19, align 4, !tbaa !44
  %138 = load i32, ptr %18, align 4, !tbaa !44
  %139 = load i32, ptr %19, align 4, !tbaa !44
  %140 = load i32, ptr %18, align 4, !tbaa !44
  %141 = load i32, ptr %19, align 4, !tbaa !44
  %142 = add nsw i32 %140, %141
  %143 = load i32, ptr %20, align 4, !tbaa !44
  %144 = sub nsw i32 %142, %143
  %145 = trunc i32 %144 to i8
  %146 = zext i8 %145 to i32
  %147 = call i32 @mid_pred(i32 noundef %138, i32 noundef %139, i32 noundef %146) #12
  %148 = load ptr, ptr %21, align 8, !tbaa !62
  %149 = load i32, ptr %15, align 4, !tbaa !44
  %150 = sext i32 %149 to i64
  %151 = getelementptr inbounds i8, ptr %148, i64 %150
  %152 = load i8, ptr %151, align 1, !tbaa !48
  %153 = zext i8 %152 to i32
  %154 = add nsw i32 %153, %147
  %155 = trunc i32 %154 to i8
  store i8 %155, ptr %151, align 1, !tbaa !48
  %156 = load i32, ptr %19, align 4, !tbaa !44
  store i32 %156, ptr %20, align 4, !tbaa !44
  %157 = load ptr, ptr %21, align 8, !tbaa !62
  %158 = load i32, ptr %15, align 4, !tbaa !44
  %159 = sext i32 %158 to i64
  %160 = getelementptr inbounds i8, ptr %157, i64 %159
  %161 = load i8, ptr %160, align 1, !tbaa !48
  %162 = zext i8 %161 to i32
  store i32 %162, ptr %18, align 4, !tbaa !44
  br label %163

163:                                              ; preds = %129
  %164 = load i32, ptr %15, align 4, !tbaa !44
  %165 = add nsw i32 %164, 1
  store i32 %165, ptr %15, align 4, !tbaa !44
  br label %119, !llvm.loop !120

166:                                              ; preds = %126
  %167 = load i32, ptr %11, align 4, !tbaa !44
  %168 = icmp sgt i32 %167, 16
  br i1 %168, label %169, label %186

169:                                              ; preds = %166
  %170 = load ptr, ptr %8, align 8, !tbaa !29
  %171 = getelementptr inbounds nuw %struct.UtvideoContext, ptr %170, i32 0, i32 3
  %172 = getelementptr inbounds nuw %struct.LLVidDSPContext, ptr %171, i32 0, i32 1
  %173 = load ptr, ptr %172, align 8, !tbaa !117
  %174 = load ptr, ptr %21, align 8, !tbaa !62
  %175 = getelementptr inbounds i8, ptr %174, i64 16
  %176 = load ptr, ptr %21, align 8, !tbaa !62
  %177 = load i64, ptr %25, align 8, !tbaa !66
  %178 = sub i64 0, %177
  %179 = getelementptr inbounds i8, ptr %176, i64 %178
  %180 = getelementptr inbounds i8, ptr %179, i64 16
  %181 = load ptr, ptr %21, align 8, !tbaa !62
  %182 = getelementptr inbounds i8, ptr %181, i64 16
  %183 = load i32, ptr %11, align 4, !tbaa !44
  %184 = sub nsw i32 %183, 16
  %185 = sext i32 %184 to i64
  call void %173(ptr noundef %175, ptr noundef %180, ptr noundef %182, i64 noundef %185, ptr noundef %18, ptr noundef %19)
  br label %186

186:                                              ; preds = %169, %166
  %187 = load ptr, ptr %8, align 8, !tbaa !29
  %188 = getelementptr inbounds nuw %struct.UtvideoContext, ptr %187, i32 0, i32 3
  %189 = getelementptr inbounds nuw %struct.LLVidDSPContext, ptr %188, i32 0, i32 1
  %190 = load ptr, ptr %189, align 8, !tbaa !117
  %191 = load ptr, ptr %21, align 8, !tbaa !62
  %192 = load i64, ptr %10, align 8, !tbaa !66
  %193 = getelementptr inbounds i8, ptr %191, i64 %192
  %194 = load ptr, ptr %21, align 8, !tbaa !62
  %195 = load i64, ptr %10, align 8, !tbaa !66
  %196 = sub i64 0, %195
  %197 = getelementptr inbounds i8, ptr %194, i64 %196
  %198 = load ptr, ptr %21, align 8, !tbaa !62
  %199 = load i64, ptr %10, align 8, !tbaa !66
  %200 = getelementptr inbounds i8, ptr %198, i64 %199
  %201 = load i32, ptr %11, align 4, !tbaa !44
  %202 = sext i32 %201 to i64
  call void %190(ptr noundef %193, ptr noundef %197, ptr noundef %200, i64 noundef %202, ptr noundef %18, ptr noundef %19)
  %203 = load i64, ptr %25, align 8, !tbaa !66
  %204 = load ptr, ptr %21, align 8, !tbaa !62
  %205 = getelementptr inbounds i8, ptr %204, i64 %203
  store ptr %205, ptr %21, align 8, !tbaa !62
  store i32 2, ptr %16, align 4, !tbaa !44
  br label %206

206:                                              ; preds = %242, %186
  %207 = load i32, ptr %16, align 4, !tbaa !44
  %208 = load i32, ptr %23, align 4, !tbaa !44
  %209 = icmp slt i32 %207, %208
  br i1 %209, label %210, label %245

210:                                              ; preds = %206
  %211 = load ptr, ptr %8, align 8, !tbaa !29
  %212 = getelementptr inbounds nuw %struct.UtvideoContext, ptr %211, i32 0, i32 3
  %213 = getelementptr inbounds nuw %struct.LLVidDSPContext, ptr %212, i32 0, i32 1
  %214 = load ptr, ptr %213, align 8, !tbaa !117
  %215 = load ptr, ptr %21, align 8, !tbaa !62
  %216 = load ptr, ptr %21, align 8, !tbaa !62
  %217 = load i64, ptr %25, align 8, !tbaa !66
  %218 = sub i64 0, %217
  %219 = getelementptr inbounds i8, ptr %216, i64 %218
  %220 = load ptr, ptr %21, align 8, !tbaa !62
  %221 = load i32, ptr %11, align 4, !tbaa !44
  %222 = sext i32 %221 to i64
  call void %214(ptr noundef %215, ptr noundef %219, ptr noundef %220, i64 noundef %222, ptr noundef %18, ptr noundef %19)
  %223 = load ptr, ptr %8, align 8, !tbaa !29
  %224 = getelementptr inbounds nuw %struct.UtvideoContext, ptr %223, i32 0, i32 3
  %225 = getelementptr inbounds nuw %struct.LLVidDSPContext, ptr %224, i32 0, i32 1
  %226 = load ptr, ptr %225, align 8, !tbaa !117
  %227 = load ptr, ptr %21, align 8, !tbaa !62
  %228 = load i64, ptr %10, align 8, !tbaa !66
  %229 = getelementptr inbounds i8, ptr %227, i64 %228
  %230 = load ptr, ptr %21, align 8, !tbaa !62
  %231 = load i64, ptr %10, align 8, !tbaa !66
  %232 = sub i64 0, %231
  %233 = getelementptr inbounds i8, ptr %230, i64 %232
  %234 = load ptr, ptr %21, align 8, !tbaa !62
  %235 = load i64, ptr %10, align 8, !tbaa !66
  %236 = getelementptr inbounds i8, ptr %234, i64 %235
  %237 = load i32, ptr %11, align 4, !tbaa !44
  %238 = sext i32 %237 to i64
  call void %226(ptr noundef %229, ptr noundef %233, ptr noundef %236, i64 noundef %238, ptr noundef %18, ptr noundef %19)
  %239 = load i64, ptr %25, align 8, !tbaa !66
  %240 = load ptr, ptr %21, align 8, !tbaa !62
  %241 = getelementptr inbounds i8, ptr %240, i64 %239
  store ptr %241, ptr %21, align 8, !tbaa !62
  br label %242

242:                                              ; preds = %210
  %243 = load i32, ptr %16, align 4, !tbaa !44
  %244 = add nsw i32 %243, 1
  store i32 %244, ptr %16, align 4, !tbaa !44
  br label %206, !llvm.loop !121

245:                                              ; preds = %206
  br label %246

246:                                              ; preds = %245, %100, %58
  %247 = load i32, ptr %17, align 4, !tbaa !44
  %248 = add nsw i32 %247, 1
  store i32 %248, ptr %17, align 4, !tbaa !44
  br label %32, !llvm.loop !122

249:                                              ; preds = %32
  call void @llvm.lifetime.end.p0(i64 8, ptr %25) #11
  call void @llvm.lifetime.end.p0(i64 4, ptr %24) #11
  call void @llvm.lifetime.end.p0(i64 4, ptr %23) #11
  call void @llvm.lifetime.end.p0(i64 4, ptr %22) #11
  call void @llvm.lifetime.end.p0(i64 8, ptr %21) #11
  call void @llvm.lifetime.end.p0(i64 4, ptr %20) #11
  call void @llvm.lifetime.end.p0(i64 4, ptr %19) #11
  call void @llvm.lifetime.end.p0(i64 4, ptr %18) #11
  call void @llvm.lifetime.end.p0(i64 4, ptr %17) #11
  call void @llvm.lifetime.end.p0(i64 4, ptr %16) #11
  call void @llvm.lifetime.end.p0(i64 4, ptr %15) #11
  ret void
}