; Function Attrs: nounwind uwtable
define internal fastcc void @restore_median_planar_il(ptr noundef readonly captures(none) %0, ptr noundef %1, i64 noundef range(i64 -2147483648, 2147483648) %2, i32 noundef %3, i32 noundef %4, i32 noundef %5, i32 noundef range(i32 0, 2) %6) unnamed_addr #1 {
  %8 = alloca i32, align 4
  %9 = alloca i32, align 4
  call void @llvm.lifetime.start.p0(i64 4, ptr nonnull %8) #7
  call void @llvm.lifetime.start.p0(i64 4, ptr nonnull %9) #7
  %.not = icmp eq i32 %6, 0
  %10 = select i1 %.not, i32 -2, i32 -4
  %11 = shl nsw i64 %2, 1
  %12 = icmp sgt i32 %5, 0
  br i1 %12, label %.lr.ph102, label %._crit_edge103

.lr.ph102:                                        ; preds = %7
  %13 = getelementptr inbounds nuw i8, ptr %0, i64 56
  %14 = sext i32 %3 to i64
  %15 = tail call i32 @llvm.smin.i32(i32 %3, i32 16)
  %16 = icmp sgt i32 %3, 1
  %17 = icmp sgt i32 %3, 16
  %18 = getelementptr inbounds nuw i8, ptr %0, i64 48
  %19 = add nsw i32 %3, -16
  %20 = zext nneg i32 %19 to i64
  %21 = sub nsw i64 0, %2
  %wide.trip.count = zext nneg i32 %15 to i64
  br label %22

22:                                               ; preds = %.lr.ph102, %.loopexit
  %.086100 = phi i32 [ 0, %.lr.ph102 ], [ %26, %.loopexit ]
  %23 = mul nsw i32 %.086100, %4
  %24 = sdiv i32 %23, %5
  %25 = and i32 %24, %10
  %26 = add nuw nsw i32 %.086100, 1
  %27 = mul nsw i32 %26, %4
  %28 = sdiv i32 %27, %5
  %29 = and i32 %28, %10
  %30 = sub nsw i32 %29, %25
  %31 = ashr exact i32 %30, 1
  %.not92 = icmp eq i32 %29, %25
  br i1 %.not92, label %.loopexit, label %32

32:                                               ; preds = %22
  %33 = sext i32 %25 to i64
  %34 = mul nsw i64 %2, %33
  %35 = getelementptr inbounds i8, ptr %1, i64 %34
  %36 = load i8, ptr %35, align 1, !tbaa !44
  %37 = xor i8 %36, -128
  store i8 %37, ptr %35, align 1, !tbaa !44
  %38 = load ptr, ptr %13, align 8, !tbaa !101
  %39 = call i32 %38(ptr noundef nonnull %35, ptr noundef nonnull %35, i64 noundef %14, i32 noundef 0) #7
  store i32 %39, ptr %8, align 4, !tbaa !39
  %40 = load ptr, ptr %13, align 8, !tbaa !101
  %41 = getelementptr inbounds i8, ptr %35, i64 %2
  %42 = call i32 %40(ptr noundef nonnull %41, ptr noundef nonnull %41, i64 noundef %14, i32 noundef %39) #7
  %43 = getelementptr inbounds i8, ptr %35, i64 %11
  %44 = icmp slt i32 %31, 2
  br i1 %44, label %.loopexit, label %45

45:                                               ; preds = %32
  %46 = load i8, ptr %35, align 1, !tbaa !44
  %47 = load i8, ptr %43, align 1, !tbaa !44
  %48 = add i8 %47, %46
  store i8 %48, ptr %43, align 1, !tbaa !44
  %49 = zext i8 %48 to i32
  store i32 %49, ptr %8, align 4, !tbaa !39
  br i1 %16, label %.lr.ph.preheader, label %.thread

.lr.ph.preheader:                                 ; preds = %45
  %50 = zext i8 %46 to i32
  br label %.lr.ph

.lr.ph:                                           ; preds = %.lr.ph.preheader, %mid_pred.exit
  %indvars.iv = phi i64 [ 1, %.lr.ph.preheader ], [ %indvars.iv.next, %mid_pred.exit ]
  %.08893 = phi i32 [ %50, %.lr.ph.preheader ], [ %54, %mid_pred.exit ]
  %51 = phi i32 [ %49, %.lr.ph.preheader ], [ %70, %mid_pred.exit ]
  %52 = getelementptr inbounds nuw i8, ptr %35, i64 %indvars.iv
  %53 = load i8, ptr %52, align 1, !tbaa !44
  %54 = zext i8 %53 to i32
  %55 = sub nsw i32 %54, %.08893
  %56 = add nsw i32 %55, %51
  %57 = and i32 %56, 255
  %58 = icmp samesign ugt i32 %51, %54
  br i1 %58, label %59, label %62

59:                                               ; preds = %.lr.ph
  %60 = icmp samesign ugt i32 %57, %54
  br i1 %60, label %61, label %mid_pred.exit

61:                                               ; preds = %59
  %..i = call i32 @llvm.umin.i32(i32 range(i32 0, 256) %57, i32 %51)
  br label %mid_pred.exit

62:                                               ; preds = %.lr.ph
  %63 = icmp samesign ult i32 %57, %54
  br i1 %63, label %64, label %mid_pred.exit

64:                                               ; preds = %62
  %65 = call i32 @llvm.umax.i32(i32 %57, i32 %51)
  br label %mid_pred.exit

mid_pred.exit:                                    ; preds = %59, %61, %62, %64
  %.0.i = phi i32 [ %54, %59 ], [ %54, %62 ], [ %..i, %61 ], [ %65, %64 ]
  %66 = getelementptr inbounds nuw i8, ptr %43, i64 %indvars.iv
  %67 = load i8, ptr %66, align 1, !tbaa !44
  %68 = trunc nuw i32 %.0.i to i8
  %69 = add i8 %67, %68
  store i8 %69, ptr %66, align 1, !tbaa !44
  %70 = zext i8 %69 to i32
  %indvars.iv.next = add nuw nsw i64 %indvars.iv, 1
  %exitcond.not = icmp eq i64 %indvars.iv.next, %wide.trip.count
  br i1 %exitcond.not, label %71, label %.lr.ph, !llvm.loop !107

71:                                               ; preds = %mid_pred.exit
  store i32 %54, ptr %9, align 4, !tbaa !39
  store i32 %70, ptr %8, align 4, !tbaa !39
  br i1 %17, label %72, label %.thread

72:                                               ; preds = %71
  %73 = load ptr, ptr %18, align 8, !tbaa !104
  %74 = getelementptr inbounds nuw i8, ptr %43, i64 16
  %75 = getelementptr inbounds nuw i8, ptr %35, i64 16
  call void %73(ptr noundef nonnull %74, ptr noundef nonnull %75, ptr noundef nonnull %74, i64 noundef %20, ptr noundef nonnull %8, ptr noundef nonnull %9) #7
  br label %.thread

.thread:                                          ; preds = %45, %72, %71
  %76 = load ptr, ptr %18, align 8, !tbaa !104
  %77 = getelementptr inbounds i8, ptr %43, i64 %2
  %78 = getelementptr inbounds i8, ptr %43, i64 %21
  call void %76(ptr noundef nonnull %77, ptr noundef nonnull %78, ptr noundef nonnull %77, i64 noundef %14, ptr noundef nonnull %8, ptr noundef nonnull %9) #7
  %.not104 = icmp eq i32 %30, 4
  br i1 %.not104, label %.loopexit, label %.lr.ph99.preheader

.lr.ph99.preheader:                               ; preds = %.thread
  %smax = call i32 @llvm.smax.i32(i32 %31, i32 3)
  br label %.lr.ph99

.lr.ph99:                                         ; preds = %.lr.ph99.preheader, %.lr.ph99
  %.08597 = phi i32 [ %83, %.lr.ph99 ], [ 2, %.lr.ph99.preheader ]
  %.pn96 = phi ptr [ %.087, %.lr.ph99 ], [ %43, %.lr.ph99.preheader ]
  %.087 = getelementptr inbounds i8, ptr %.pn96, i64 %11
  %79 = load ptr, ptr %18, align 8, !tbaa !104
  call void %79(ptr noundef %.087, ptr noundef %.pn96, ptr noundef %.087, i64 noundef %14, ptr noundef nonnull %8, ptr noundef nonnull %9) #7
  %80 = load ptr, ptr %18, align 8, !tbaa !104
  %81 = getelementptr inbounds i8, ptr %.087, i64 %2
  %82 = getelementptr inbounds i8, ptr %.087, i64 %21
  call void %80(ptr noundef %81, ptr noundef %82, ptr noundef %81, i64 noundef %14, ptr noundef nonnull %8, ptr noundef nonnull %9) #7
  %83 = add nuw nsw i32 %.08597, 1
  %exitcond107.not = icmp eq i32 %83, %smax
  br i1 %exitcond107.not, label %.loopexit, label %.lr.ph99, !llvm.loop !108

.loopexit:                                        ; preds = %.lr.ph99, %.thread, %32, %22
  %exitcond108.not = icmp eq i32 %26, %5
  br i1 %exitcond108.not, label %._crit_edge103, label %22, !llvm.loop !109

._crit_edge103:                                   ; preds = %.loopexit, %7
  call void @llvm.lifetime.end.p0(i64 4, ptr nonnull %9) #7
  call void @llvm.lifetime.end.p0(i64 4, ptr nonnull %8) #7
  ret void
}